target datalayout = "e-m:e-p270:32:32-p271:32:32-p272:64:64-i64:64-i128:128-f80:128-n8:16:32:64-S128"
target triple = "x86_64-unknown-linux-gnu"

%"class.QuantLib::Date" = type { i64 }

; Function Attrs: inlinehint mustprogress nounwind uwtable
define linkonce_odr noundef i64 @_ZNK8QuantLib4Date12serialNumberEv(ptr noundef nonnull align 8 dereferenceable(8) %this) #6 comdat align 2 {
entry:
  %this.addr = alloca ptr, align 8
  store ptr %this, ptr %this.addr, align 8, !tbaa !3
  %this1 = load ptr, ptr %this.addr, align 8
  %serialNumber_ = getelementptr inbounds nuw %"class.QuantLib::Date", ptr %this1, i32 0, i32 0
  %0 = load i64, ptr %serialNumber_, align 8, !tbaa !33
  ret i64 %0
}

; Function Attrs: inlinehint mustprogress uwtable
define linkonce_odr noundef zeroext i1 @_ZN8QuantLibeqERKNS_4DateES2_(ptr noundef nonnull align 8 dereferenceable(8) %d1, ptr noundef nonnull align 8 dereferenceable(8) %d2) #7 comdat {
entry:
  %d1.addr = alloca ptr, align 8
  %d2.addr = alloca ptr, align 8
  store ptr %d1, ptr %d1.addr, align 8, !tbaa !3
  store ptr %d2, ptr %d2.addr, align 8, !tbaa !3
  %0 = load ptr, ptr %d1.addr, align 8, !tbaa !3
  %call = call noundef i64 @_ZNK8QuantLib4Date12serialNumberEv(ptr noundef nonnull align 8 dereferenceable(8) %0)
  %1 = load ptr, ptr %d2.addr, align 8, !tbaa !3
  %call1 = call noundef i64 @_ZNK8QuantLib4Date12serialNumberEv(ptr noundef nonnull align 8 dereferenceable(8) %1)
  %cmp = icmp eq i64 %call, %call1
  ret i1 %cmp
}

; Function Attrs: mustprogress uwtable
define noundef double @_ZN8QuantLib13BondFunctions10cleanPriceERKNS_4BondERKN5boost10shared_ptrINS_18YieldTermStructureEEEdRKNS_10DayCounterENS_11CompoundingENS_9FrequencyENS_4DateE(ptr noundef nonnull align 8 dereferenceable(248) %bond, ptr noundef nonnull align 8 dereferenceable(16) %d, double noundef %zSpread, ptr noundef nonnull align 8 dereferenceable(16) %dc, i32 noundef %comp, i32 noundef %freq, i64 %settlement.coerce) #4 align 2 {
entry:
  %settlement = alloca %"class.QuantLib::Date", align 8
  %bond.addr = alloca ptr, align 8
  %d.addr = alloca ptr, align 8
  %zSpread.addr = alloca double, align 8
  %dc.addr = alloca ptr, align 8
  %comp.addr = alloca i32, align 4
  %freq.addr = alloca i32, align 4
  %ref.tmp = alloca %"class.QuantLib::Date", align 8
  %ref.tmp1 = alloca %"class.QuantLib::Date", align 8
  %agg.tmp = alloca %"class.QuantLib::Date", align 8
  %agg.tmp5 = alloca %"class.QuantLib::Date", align 8
  %agg.tmp8 = alloca %"class.QuantLib::Date", align 8
  %coerce.dive = getelementptr inbounds nuw %"class.QuantLib::Date", ptr %settlement, i32 0, i32 0
  store i64 %settlement.coerce, ptr %coerce.dive, align 8
  store ptr %bond, ptr %bond.addr, align 8, !tbaa !3
  store ptr %d, ptr %d.addr, align 8, !tbaa !3
  store double %zSpread, ptr %zSpread.addr, align 8, !tbaa !12
  store ptr %dc, ptr %dc.addr, align 8, !tbaa !3
  store i32 %comp, ptr %comp.addr, align 4, !tbaa !19
  store i32 %freq, ptr %freq.addr, align 4, !tbaa !21
  call void @llvm.lifetime.start.p0(i64 8, ptr %ref.tmp) #14
  call void @_ZN8QuantLib4DateC1Ev(ptr noundef nonnull align 8 dereferenceable(8) %ref.tmp)
  %call = call noundef zeroext i1 @_ZN8QuantLibeqERKNS_4DateES2_(ptr noundef nonnull align 8 dereferenceable(8) %settlement, ptr noundef nonnull align 8 dereferenceable(8) %ref.tmp)
  call void @llvm.lifetime.end.p0(i64 8, ptr %ref.tmp) #14
  br i1 %call, label %if.then, label %if.end

if.then:                                          ; preds = %entry
  call void @llvm.lifetime.start.p0(i64 8, ptr %ref.tmp1) #14
  %0 = load ptr, ptr %bond.addr, align 8, !tbaa !3
  call void @_ZN8QuantLib4DateC1Ev(ptr noundef nonnull align 8 dereferenceable(8) %agg.tmp)
  %coerce.dive2 = getelementptr inbounds nuw %"class.QuantLib::Date", ptr %agg.tmp, i32 0, i32 0
  %1 = load i64, ptr %coerce.dive2, align 8
  %call3 = call i64 @_ZNK8QuantLib4Bond14settlementDateENS_4DateE(ptr noundef nonnull align 8 dereferenceable(248) %0, i64 %1)
  %coerce.dive4 = getelementptr inbounds nuw %"class.QuantLib::Date", ptr %ref.tmp1, i32 0, i32 0
  store i64 %call3, ptr %coerce.dive4, align 8
  call void @llvm.memcpy.p0.p0.i64(ptr align 8 %settlement, ptr align 8 %ref.tmp1, i64 8, i1 false), !tbaa.struct !7
  call void @llvm.lifetime.end.p0(i64 8, ptr %ref.tmp1) #14
  br label %if.end

if.end:                                           ; preds = %if.then, %entry
  %2 = load ptr, ptr %bond.addr, align 8, !tbaa !3
  %3 = load ptr, ptr %d.addr, align 8, !tbaa !3
  %4 = load double, ptr %zSpread.addr, align 8, !tbaa !12
  %5 = load ptr, ptr %dc.addr, align 8, !tbaa !3
  %6 = load i32, ptr %comp.addr, align 4, !tbaa !19
  %7 = load i32, ptr %freq.addr, align 4, !tbaa !21
  call void @llvm.memcpy.p0.p0.i64(ptr align 8 %agg.tmp5, ptr align 8 %settlement, i64 8, i1 false), !tbaa.struct !7
  %coerce.dive6 = getelementptr inbounds nuw %"class.QuantLib::Date", ptr %agg.tmp5, i32 0, i32 0
  %8 = load i64, ptr %coerce.dive6, align 8
  %call7 = call noundef double @_ZN8QuantLib13BondFunctions10dirtyPriceERKNS_4BondERKN5boost10shared_ptrINS_18YieldTermStructureEEEdRKNS_10DayCounterENS_11CompoundingENS_9FrequencyENS_4DateE(ptr noundef nonnull align 8 dereferenceable(248) %2, ptr noundef nonnull align 8 dereferenceable(16) %3, double noundef %4, ptr noundef nonnull align 8 dereferenceable(16) %5, i32 noundef %6, i32 noundef %7, i64 %8)
  %9 = load ptr, ptr %bond.addr, align 8, !tbaa !3
  call void @llvm.memcpy.p0.p0.i64(ptr align 8 %agg.tmp8, ptr align 8 %settlement, i64 8, i1 false), !tbaa.struct !7
  %coerce.dive9 = getelementptr inbounds nuw %"class.QuantLib::Date", ptr %agg.tmp8, i32 0, i32 0
  %10 = load i64, ptr %coerce.dive9, align 8
  %vtable = load ptr, ptr %9, align 8, !tbaa !10
  %vfn = getelementptr inbounds ptr, ptr %vtable, i64 11
  %11 = load ptr, ptr %vfn, align 8
  %call10 = call noundef double %11(ptr noundef nonnull align 8 dereferenceable(248) %9, i64 %10)
  %sub = fsub double %call7, %call10
  ret double %sub
}